; Function Attrs: nounwind uwtable
define void @pmix_ploc_base_release_topology(ptr noundef captures(address_is_null) %0, i64 noundef %1) local_unnamed_addr #0 {
  %3 = icmp ne ptr %0, null
  %4 = icmp ne i64 %1, 0
  %or.cond.i = and i1 %3, %4
  br i1 %or.cond.i, label %.lr.ph.i, label %pmix_hwloc_release_topology.exit

.lr.ph.i:                                         ; preds = %2, %pmix_hwloc_destruct_topology.exit.i
  %.06.i = phi i64 [ %16, %pmix_hwloc_destruct_topology.exit.i ], [ 0, %2 ]
  %5 = getelementptr inbounds nuw %struct.pmix_topology_t, ptr %0, i64 %.06.i
  %6 = load ptr, ptr %5, align 8, !tbaa !21
  %7 = icmp eq ptr %6, null
  br i1 %7, label %pmix_hwloc_destruct_topology.exit.i, label %8

8:                                                ; preds = %.lr.ph.i
  %9 = tail call i32 @strncasecmp(ptr noundef nonnull %6, ptr noundef nonnull @.str, i64 noundef 5) #8
  %.not.i.i = icmp eq i32 %9, 0
  br i1 %.not.i.i, label %10, label %pmix_hwloc_destruct_topology.exit.i

10:                                               ; preds = %8
  %11 = getelementptr inbounds nuw i8, ptr %5, i64 8
  %12 = load ptr, ptr %11, align 8, !tbaa !23
  %.not10.i.i = icmp eq ptr %12, null
  br i1 %.not10.i.i, label %14, label %13

13:                                               ; preds = %10
  tail call void @hwloc_topology_destroy(ptr noundef nonnull %12) #7
  store ptr null, ptr %11, align 8, !tbaa !23
  %.pre.i.i = load ptr, ptr %5, align 8, !tbaa !21
  br label %14

14:                                               ; preds = %13, %10
  %15 = phi ptr [ %.pre.i.i, %13 ], [ %6, %10 ]
  tail call void @free(ptr noundef %15) #7
  store ptr null, ptr %5, align 8, !tbaa !21
  br label %pmix_hwloc_destruct_topology.exit.i

pmix_hwloc_destruct_topology.exit.i:              ; preds = %14, %8, %.lr.ph.i
  %16 = add nuw i64 %.06.i, 1
  %exitcond.not.i = icmp eq i64 %16, %1
  br i1 %exitcond.not.i, label %pmix_hwloc_release_topology.exit, label %.lr.ph.i, !llvm.loop !59

pmix_hwloc_release_topology.exit:                 ; preds = %pmix_hwloc_destruct_topology.exit.i, %2
  ret void
}